target datalayout = "e-m:e-p270:32:32-p271:32:32-p272:64:64-i64:64-i128:128-f80:128-n8:16:32:64-S128"
target triple = "x86_64-pc-linux-gnu"

%struct.Halfedge = type { ptr, ptr, ptr, i32, i8, ptr, double, ptr }
%struct.Edge = type { double, double, double, [2 x ptr], [2 x ptr] }
%struct.Site = type { %struct.Point, i64, i32 }
%struct.Point = type { double, double }

; Function Attrs: nounwind uwtable
define ptr @hintersect(ptr noundef %0, ptr noundef %1) #0 {
  %3 = alloca ptr, align 8
  %4 = alloca ptr, align 8
  %5 = alloca ptr, align 8
  %6 = alloca ptr, align 8
  %7 = alloca ptr, align 8
  %8 = alloca ptr, align 8
  %9 = alloca ptr, align 8
  %10 = alloca double, align 8
  %11 = alloca double, align 8
  %12 = alloca double, align 8
  %13 = alloca i8, align 1
  %14 = alloca ptr, align 8
  %15 = alloca i32, align 4
  store ptr %0, ptr %4, align 8, !tbaa !10
  store ptr %1, ptr %5, align 8, !tbaa !10
  call void @llvm.lifetime.start.p0(i64 8, ptr %6) #9
  call void @llvm.lifetime.start.p0(i64 8, ptr %7) #9
  call void @llvm.lifetime.start.p0(i64 8, ptr %8) #9
  call void @llvm.lifetime.start.p0(i64 8, ptr %9) #9
  call void @llvm.lifetime.start.p0(i64 8, ptr %10) #9
  call void @llvm.lifetime.start.p0(i64 8, ptr %11) #9
  call void @llvm.lifetime.start.p0(i64 8, ptr %12) #9
  call void @llvm.lifetime.start.p0(i64 1, ptr %13) #9
  call void @llvm.lifetime.start.p0(i64 8, ptr %14) #9
  %16 = load ptr, ptr %4, align 8, !tbaa !10
  %17 = getelementptr inbounds nuw %struct.Halfedge, ptr %16, i32 0, i32 2
  %18 = load ptr, ptr %17, align 8, !tbaa !27
  store ptr %18, ptr %6, align 8, !tbaa !25
  %19 = load ptr, ptr %5, align 8, !tbaa !10
  %20 = getelementptr inbounds nuw %struct.Halfedge, ptr %19, i32 0, i32 2
  %21 = load ptr, ptr %20, align 8, !tbaa !27
  store ptr %21, ptr %7, align 8, !tbaa !25
  %22 = load ptr, ptr %6, align 8, !tbaa !25
  %23 = icmp eq ptr %22, null
  br i1 %23, label %27, label %24

24:                                               ; preds = %2
  %25 = load ptr, ptr %7, align 8, !tbaa !25
  %26 = icmp eq ptr %25, null
  br i1 %26, label %27, label %28

27:                                               ; preds = %24, %2
  store ptr null, ptr %3, align 8
  store i32 1, ptr %15, align 4
  br label %191

28:                                               ; preds = %24
  %29 = load ptr, ptr %6, align 8, !tbaa !25
  %30 = getelementptr inbounds nuw %struct.Edge, ptr %29, i32 0, i32 4
  %31 = getelementptr inbounds [2 x ptr], ptr %30, i64 0, i64 1
  %32 = load ptr, ptr %31, align 8, !tbaa !32
  %33 = load ptr, ptr %7, align 8, !tbaa !25
  %34 = getelementptr inbounds nuw %struct.Edge, ptr %33, i32 0, i32 4
  %35 = getelementptr inbounds [2 x ptr], ptr %34, i64 0, i64 1
  %36 = load ptr, ptr %35, align 8, !tbaa !32
  %37 = icmp eq ptr %32, %36
  br i1 %37, label %38, label %39

38:                                               ; preds = %28
  store ptr null, ptr %3, align 8
  store i32 1, ptr %15, align 4
  br label %191

39:                                               ; preds = %28
  %40 = load ptr, ptr %6, align 8, !tbaa !25
  %41 = getelementptr inbounds nuw %struct.Edge, ptr %40, i32 0, i32 0
  %42 = load double, ptr %41, align 8, !tbaa !33
  %43 = load ptr, ptr %7, align 8, !tbaa !25
  %44 = getelementptr inbounds nuw %struct.Edge, ptr %43, i32 0, i32 1
  %45 = load double, ptr %44, align 8, !tbaa !35
  %46 = load ptr, ptr %6, align 8, !tbaa !25
  %47 = getelementptr inbounds nuw %struct.Edge, ptr %46, i32 0, i32 1
  %48 = load double, ptr %47, align 8, !tbaa !35
  %49 = load ptr, ptr %7, align 8, !tbaa !25
  %50 = getelementptr inbounds nuw %struct.Edge, ptr %49, i32 0, i32 0
  %51 = load double, ptr %50, align 8, !tbaa !33
  %52 = fmul double %48, %51
  %53 = fneg double %52
  %54 = call double @llvm.fmuladd.f64(double %42, double %45, double %53)
  store double %54, ptr %10, align 8, !tbaa !36
  %55 = load double, ptr %10, align 8, !tbaa !36
  %56 = fcmp olt double -1.000000e-10, %55
  br i1 %56, label %57, label %61

57:                                               ; preds = %39
  %58 = load double, ptr %10, align 8, !tbaa !36
  %59 = fcmp olt double %58, 1.000000e-10
  br i1 %59, label %60, label %61

60:                                               ; preds = %57
  store ptr null, ptr %3, align 8
  store i32 1, ptr %15, align 4
  br label %191

61:                                               ; preds = %57, %39
  %62 = load ptr, ptr %6, align 8, !tbaa !25
  %63 = getelementptr inbounds nuw %struct.Edge, ptr %62, i32 0, i32 2
  %64 = load double, ptr %63, align 8, !tbaa !37
  %65 = load ptr, ptr %7, align 8, !tbaa !25
  %66 = getelementptr inbounds nuw %struct.Edge, ptr %65, i32 0, i32 1
  %67 = load double, ptr %66, align 8, !tbaa !35
  %68 = load ptr, ptr %7, align 8, !tbaa !25
  %69 = getelementptr inbounds nuw %struct.Edge, ptr %68, i32 0, i32 2
  %70 = load double, ptr %69, align 8, !tbaa !37
  %71 = load ptr, ptr %6, align 8, !tbaa !25
  %72 = getelementptr inbounds nuw %struct.Edge, ptr %71, i32 0, i32 1
  %73 = load double, ptr %72, align 8, !tbaa !35
  %74 = fmul double %70, %73
  %75 = fneg double %74
  %76 = call double @llvm.fmuladd.f64(double %64, double %67, double %75)
  %77 = load double, ptr %10, align 8, !tbaa !36
  %78 = fdiv double %76, %77
  store double %78, ptr %11, align 8, !tbaa !36
  %79 = load ptr, ptr %7, align 8, !tbaa !25
  %80 = getelementptr inbounds nuw %struct.Edge, ptr %79, i32 0, i32 2
  %81 = load double, ptr %80, align 8, !tbaa !37
  %82 = load ptr, ptr %6, align 8, !tbaa !25
  %83 = getelementptr inbounds nuw %struct.Edge, ptr %82, i32 0, i32 0
  %84 = load double, ptr %83, align 8, !tbaa !33
  %85 = load ptr, ptr %6, align 8, !tbaa !25
  %86 = getelementptr inbounds nuw %struct.Edge, ptr %85, i32 0, i32 2
  %87 = load double, ptr %86, align 8, !tbaa !37
  %88 = load ptr, ptr %7, align 8, !tbaa !25
  %89 = getelementptr inbounds nuw %struct.Edge, ptr %88, i32 0, i32 0
  %90 = load double, ptr %89, align 8, !tbaa !33
  %91 = fmul double %87, %90
  %92 = fneg double %91
  %93 = call double @llvm.fmuladd.f64(double %81, double %84, double %92)
  %94 = load double, ptr %10, align 8, !tbaa !36
  %95 = fdiv double %93, %94
  store double %95, ptr %12, align 8, !tbaa !36
  %96 = load ptr, ptr %6, align 8, !tbaa !25
  %97 = getelementptr inbounds nuw %struct.Edge, ptr %96, i32 0, i32 4
  %98 = getelementptr inbounds [2 x ptr], ptr %97, i64 0, i64 1
  %99 = load ptr, ptr %98, align 8, !tbaa !32
  %100 = getelementptr inbounds nuw %struct.Site, ptr %99, i32 0, i32 0
  %101 = getelementptr inbounds nuw %struct.Point, ptr %100, i32 0, i32 1
  %102 = load double, ptr %101, align 8, !tbaa !38
  %103 = load ptr, ptr %7, align 8, !tbaa !25
  %104 = getelementptr inbounds nuw %struct.Edge, ptr %103, i32 0, i32 4
  %105 = getelementptr inbounds [2 x ptr], ptr %104, i64 0, i64 1
  %106 = load ptr, ptr %105, align 8, !tbaa !32
  %107 = getelementptr inbounds nuw %struct.Site, ptr %106, i32 0, i32 0
  %108 = getelementptr inbounds nuw %struct.Point, ptr %107, i32 0, i32 1
  %109 = load double, ptr %108, align 8, !tbaa !38
  %110 = fcmp olt double %102, %109
  br i1 %110, label %143, label %111

111:                                              ; preds = %61
  %112 = load ptr, ptr %6, align 8, !tbaa !25
  %113 = getelementptr inbounds nuw %struct.Edge, ptr %112, i32 0, i32 4
  %114 = getelementptr inbounds [2 x ptr], ptr %113, i64 0, i64 1
  %115 = load ptr, ptr %114, align 8, !tbaa !32
  %116 = getelementptr inbounds nuw %struct.Site, ptr %115, i32 0, i32 0
  %117 = getelementptr inbounds nuw %struct.Point, ptr %116, i32 0, i32 1
  %118 = load double, ptr %117, align 8, !tbaa !38
  %119 = load ptr, ptr %7, align 8, !tbaa !25
  %120 = getelementptr inbounds nuw %struct.Edge, ptr %119, i32 0, i32 4
  %121 = getelementptr inbounds [2 x ptr], ptr %120, i64 0, i64 1
  %122 = load ptr, ptr %121, align 8, !tbaa !32
  %123 = getelementptr inbounds nuw %struct.Site, ptr %122, i32 0, i32 0
  %124 = getelementptr inbounds nuw %struct.Point, ptr %123, i32 0, i32 1
  %125 = load double, ptr %124, align 8, !tbaa !38
  %126 = fcmp oeq double %118, %125
  br i1 %126, label %127, label %146

127:                                              ; preds = %111
  %128 = load ptr, ptr %6, align 8, !tbaa !25
  %129 = getelementptr inbounds nuw %struct.Edge, ptr %128, i32 0, i32 4
  %130 = getelementptr inbounds [2 x ptr], ptr %129, i64 0, i64 1
  %131 = load ptr, ptr %130, align 8, !tbaa !32
  %132 = getelementptr inbounds nuw %struct.Site, ptr %131, i32 0, i32 0
  %133 = getelementptr inbounds nuw %struct.Point, ptr %132, i32 0, i32 0
  %134 = load double, ptr %133, align 8, !tbaa !41
  %135 = load ptr, ptr %7, align 8, !tbaa !25
  %136 = getelementptr inbounds nuw %struct.Edge, ptr %135, i32 0, i32 4
  %137 = getelementptr inbounds [2 x ptr], ptr %136, i64 0, i64 1
  %138 = load ptr, ptr %137, align 8, !tbaa !32
  %139 = getelementptr inbounds nuw %struct.Site, ptr %138, i32 0, i32 0
  %140 = getelementptr inbounds nuw %struct.Point, ptr %139, i32 0, i32 0
  %141 = load double, ptr %140, align 8, !tbaa !41
  %142 = fcmp olt double %134, %141
  br i1 %142, label %143, label %146

143:                                              ; preds = %127, %61
  %144 = load ptr, ptr %4, align 8, !tbaa !10
  store ptr %144, ptr %9, align 8, !tbaa !10
  %145 = load ptr, ptr %6, align 8, !tbaa !25
  store ptr %145, ptr %8, align 8, !tbaa !25
  br label %149

146:                                              ; preds = %127, %111
  %147 = load ptr, ptr %5, align 8, !tbaa !10
  store ptr %147, ptr %9, align 8, !tbaa !10
  %148 = load ptr, ptr %7, align 8, !tbaa !25
  store ptr %148, ptr %8, align 8, !tbaa !25
  br label %149

149:                                              ; preds = %146, %143
  %150 = load double, ptr %11, align 8, !tbaa !36
  %151 = load ptr, ptr %8, align 8, !tbaa !25
  %152 = getelementptr inbounds nuw %struct.Edge, ptr %151, i32 0, i32 4
  %153 = getelementptr inbounds [2 x ptr], ptr %152, i64 0, i64 1
  %154 = load ptr, ptr %153, align 8, !tbaa !32
  %155 = getelementptr inbounds nuw %struct.Site, ptr %154, i32 0, i32 0
  %156 = getelementptr inbounds nuw %struct.Point, ptr %155, i32 0, i32 0
  %157 = load double, ptr %156, align 8, !tbaa !41
  %158 = fcmp oge double %150, %157
  %159 = zext i1 %158 to i8
  store i8 %159, ptr %13, align 1, !tbaa !42
  %160 = load i8, ptr %13, align 1, !tbaa !42, !range !44, !noundef !45
  %161 = trunc i8 %160 to i1
  br i1 %161, label %162, label %168

162:                                              ; preds = %149
  %163 = load ptr, ptr %9, align 8, !tbaa !10
  %164 = getelementptr inbounds nuw %struct.Halfedge, ptr %163, i32 0, i32 4
  %165 = load i8, ptr %164, align 4, !tbaa !28
  %166 = sext i8 %165 to i32
  %167 = icmp eq i32 %166, 0
  br i1 %167, label %177, label %168

168:                                              ; preds = %162, %149
  %169 = load i8, ptr %13, align 1, !tbaa !42, !range !44, !noundef !45
  %170 = trunc i8 %169 to i1
  br i1 %170, label %178, label %171

171:                                              ; preds = %168
  %172 = load ptr, ptr %9, align 8, !tbaa !10
  %173 = getelementptr inbounds nuw %struct.Halfedge, ptr %172, i32 0, i32 4
  %174 = load i8, ptr %173, align 4, !tbaa !28
  %175 = sext i8 %174 to i32
  %176 = icmp eq i32 %175, 1
  br i1 %176, label %177, label %178

177:                                              ; preds = %171, %162
  store ptr null, ptr %3, align 8
  store i32 1, ptr %15, align 4
  br label %191

178:                                              ; preds = %171, %168
  %179 = call ptr @getsite()
  store ptr %179, ptr %14, align 8, !tbaa !32
  %180 = load ptr, ptr %14, align 8, !tbaa !32
  %181 = getelementptr inbounds nuw %struct.Site, ptr %180, i32 0, i32 2
  store i32 0, ptr %181, align 8, !tbaa !46
  %182 = load double, ptr %11, align 8, !tbaa !36
  %183 = load ptr, ptr %14, align 8, !tbaa !32
  %184 = getelementptr inbounds nuw %struct.Site, ptr %183, i32 0, i32 0
  %185 = getelementptr inbounds nuw %struct.Point, ptr %184, i32 0, i32 0
  store double %182, ptr %185, align 8, !tbaa !41
  %186 = load double, ptr %12, align 8, !tbaa !36
  %187 = load ptr, ptr %14, align 8, !tbaa !32
  %188 = getelementptr inbounds nuw %struct.Site, ptr %187, i32 0, i32 0
  %189 = getelementptr inbounds nuw %struct.Point, ptr %188, i32 0, i32 1
  store double %186, ptr %189, align 8, !tbaa !38
  %190 = load ptr, ptr %14, align 8, !tbaa !32
  store ptr %190, ptr %3, align 8
  store i32 1, ptr %15, align 4
  br label %191

191:                                              ; preds = %178, %177, %60, %38, %27
  call void @llvm.lifetime.end.p0(i64 8, ptr %14) #9
  call void @llvm.lifetime.end.p0(i64 1, ptr %13) #9
  call void @llvm.lifetime.end.p0(i64 8, ptr %12) #9
  call void @llvm.lifetime.end.p0(i64 8, ptr %11) #9
  call void @llvm.lifetime.end.p0(i64 8, ptr %10) #9
  call void @llvm.lifetime.end.p0(i64 8, ptr %9) #9
  call void @llvm.lifetime.end.p0(i64 8, ptr %8) #9
  call void @llvm.lifetime.end.p0(i64 8, ptr %7) #9
  call void @llvm.lifetime.end.p0(i64 8, ptr %6) #9
  %192 = load ptr, ptr %3, align 8
  ret ptr %192
}