; Function Attrs: nounwind uwtable
define noundef ptr @hintersect(ptr noundef readonly captures(none) %0, ptr noundef readonly captures(none) %1) local_unnamed_addr #0 {
  %3 = getelementptr inbounds nuw i8, ptr %0, i64 16
  %4 = load ptr, ptr %3, align 8, !tbaa !14
  %5 = getelementptr inbounds nuw i8, ptr %1, i64 16
  %6 = load ptr, ptr %5, align 8, !tbaa !14
  %7 = icmp eq ptr %4, null
  %8 = icmp eq ptr %6, null
  %or.cond = select i1 %7, i1 true, i1 %8
  br i1 %or.cond, label %63, label %9

9:                                                ; preds = %2
  %10 = getelementptr inbounds nuw i8, ptr %4, i64 48
  %11 = load ptr, ptr %10, align 8, !tbaa !25
  %12 = getelementptr inbounds nuw i8, ptr %6, i64 48
  %13 = load ptr, ptr %12, align 8, !tbaa !25
  %14 = icmp eq ptr %11, %13
  br i1 %14, label %63, label %15

15:                                               ; preds = %9
  %16 = load double, ptr %4, align 8, !tbaa !26
  %17 = getelementptr inbounds nuw i8, ptr %6, i64 8
  %18 = load double, ptr %17, align 8, !tbaa !28
  %19 = getelementptr inbounds nuw i8, ptr %4, i64 8
  %20 = load double, ptr %19, align 8, !tbaa !28
  %21 = load double, ptr %6, align 8, !tbaa !26
  %22 = fneg double %21
  %23 = fmul double %20, %22
  %24 = tail call double @llvm.fmuladd.f64(double %16, double %18, double %23)
  %25 = tail call double @llvm.fabs.f64(double %24)
  %or.cond3 = fcmp olt double %25, 1.000000e-10
  br i1 %or.cond3, label %63, label %26

26:                                               ; preds = %15
  %27 = getelementptr inbounds nuw i8, ptr %4, i64 16
  %28 = load double, ptr %27, align 8, !tbaa !29
  %29 = getelementptr inbounds nuw i8, ptr %6, i64 16
  %30 = load double, ptr %29, align 8, !tbaa !29
  %31 = fneg double %20
  %32 = fmul double %30, %31
  %33 = tail call double @llvm.fmuladd.f64(double %28, double %18, double %32)
  %34 = fdiv double %33, %24
  %35 = fmul double %28, %22
  %36 = tail call double @llvm.fmuladd.f64(double %30, double %16, double %35)
  %37 = fdiv double %36, %24
  %38 = getelementptr inbounds nuw i8, ptr %11, i64 8
  %39 = load double, ptr %38, align 8, !tbaa !30
  %40 = getelementptr inbounds nuw i8, ptr %13, i64 8
  %41 = load double, ptr %40, align 8, !tbaa !30
  %42 = fcmp olt double %39, %41
  br i1 %42, label %50, label %43

43:                                               ; preds = %26
  %44 = fcmp oeq double %39, %41
  br i1 %44, label %45, label %49

45:                                               ; preds = %43
  %46 = load double, ptr %11, align 8, !tbaa !34
  %47 = load double, ptr %13, align 8, !tbaa !34
  %48 = fcmp olt double %46, %47
  br i1 %48, label %50, label %49

49:                                               ; preds = %45, %43
  br label %50

50:                                               ; preds = %26, %45, %49
  %51 = phi ptr [ %13, %49 ], [ %11, %45 ], [ %11, %26 ]
  %.048 = phi ptr [ %1, %49 ], [ %0, %45 ], [ %0, %26 ]
  %52 = load double, ptr %51, align 8, !tbaa !34
  %53 = fcmp ult double %34, %52
  %54 = getelementptr inbounds nuw i8, ptr %.048, i64 28
  %55 = load i8, ptr %54, align 4, !tbaa !19
  br i1 %53, label %.critedge, label %56

56:                                               ; preds = %50
  %57 = icmp eq i8 %55, 0
  br i1 %57, label %63, label %59

.critedge:                                        ; preds = %50
  %58 = icmp eq i8 %55, 1
  br i1 %58, label %63, label %59

59:                                               ; preds = %56, %.critedge
  %60 = tail call ptr @getsite() #13
  %61 = getelementptr inbounds nuw i8, ptr %60, i64 24
  store i32 0, ptr %61, align 8, !tbaa !35
  store double %34, ptr %60, align 8, !tbaa !34
  %62 = getelementptr inbounds nuw i8, ptr %60, i64 8
  store double %37, ptr %62, align 8, !tbaa !30
  br label %63

63:                                               ; preds = %56, %.critedge, %15, %9, %2, %59
  %.0 = phi ptr [ %60, %59 ], [ null, %2 ], [ null, %9 ], [ null, %15 ], [ null, %.critedge ], [ null, %56 ]
  ret ptr %.0
}